target datalayout = "e-m:e-p270:32:32-p271:32:32-p272:64:64-i64:64-i128:128-f80:128-n8:16:32:64-S128"
target triple = "x86_64-pc-linux-gnu"

%struct.CommandTagBehavior = type { ptr, i8, i8, i8, i8 }

; Function Attrs: nounwind uwtable
define dso_local i32 @GetCommandTagEnum(ptr noundef %0) #0 {
  %2 = alloca i32, align 4
  %3 = alloca ptr, align 8
  %4 = alloca ptr, align 8
  %5 = alloca ptr, align 8
  %6 = alloca ptr, align 8
  %7 = alloca i32, align 4
  %8 = alloca i32, align 4
  store ptr %0, ptr %3, align 8
  call void @llvm.lifetime.start.p0(i64 8, ptr %4) #4
  call void @llvm.lifetime.start.p0(i64 8, ptr %5) #4
  call void @llvm.lifetime.start.p0(i64 8, ptr %6) #4
  call void @llvm.lifetime.start.p0(i64 4, ptr %7) #4
  %9 = load ptr, ptr %3, align 8
  %10 = icmp eq ptr %9, null
  br i1 %10, label %16, label %11

11:                                               ; preds = %1
  %12 = load ptr, ptr %3, align 8
  %13 = load i8, ptr %12, align 1
  %14 = sext i8 %13 to i32
  %15 = icmp eq i32 %14, 0
  br i1 %15, label %16, label %17

16:                                               ; preds = %11, %1
  store i32 0, ptr %2, align 4
  store i32 1, ptr %8, align 4
  br label %57

17:                                               ; preds = %11
  store ptr @tag_behavior, ptr %4, align 8
  store ptr getelementptr inbounds (%struct.CommandTagBehavior, ptr getelementptr inbounds nuw (%struct.CommandTagBehavior, ptr @tag_behavior, i64 193), i64 -1), ptr %5, align 8
  br label %18

18:                                               ; preds = %55, %17
  %19 = load ptr, ptr %5, align 8
  %20 = load ptr, ptr %4, align 8
  %21 = icmp uge ptr %19, %20
  br i1 %21, label %22, label %56

22:                                               ; preds = %18
  %23 = load ptr, ptr %4, align 8
  %24 = load ptr, ptr %5, align 8
  %25 = load ptr, ptr %4, align 8
  %26 = ptrtoint ptr %24 to i64
  %27 = ptrtoint ptr %25 to i64
  %28 = sub i64 %26, %27
  %29 = sdiv exact i64 %28, 16
  %30 = ashr i64 %29, 1
  %31 = getelementptr inbounds %struct.CommandTagBehavior, ptr %23, i64 %30
  store ptr %31, ptr %6, align 8
  %32 = load ptr, ptr %3, align 8
  %33 = load ptr, ptr %6, align 8
  %34 = getelementptr inbounds nuw %struct.CommandTagBehavior, ptr %33, i32 0, i32 0
  %35 = load ptr, ptr %34, align 8
  %36 = call i32 @pg_strcasecmp(ptr noundef %32, ptr noundef %35)
  store i32 %36, ptr %7, align 4
  %37 = load i32, ptr %7, align 4
  %38 = icmp eq i32 %37, 0
  br i1 %38, label %39, label %45

39:                                               ; preds = %22
  %40 = load ptr, ptr %6, align 8
  %41 = ptrtoint ptr %40 to i64
  %42 = sub i64 %41, ptrtoint (ptr @tag_behavior to i64)
  %43 = sdiv exact i64 %42, 16
  %44 = trunc i64 %43 to i32
  store i32 %44, ptr %2, align 4
  store i32 1, ptr %8, align 4
  br label %57

45:                                               ; preds = %22
  %46 = load i32, ptr %7, align 4
  %47 = icmp slt i32 %46, 0
  br i1 %47, label %48, label %51

48:                                               ; preds = %45
  %49 = load ptr, ptr %6, align 8
  %50 = getelementptr inbounds %struct.CommandTagBehavior, ptr %49, i64 -1
  store ptr %50, ptr %5, align 8
  br label %54

51:                                               ; preds = %45
  %52 = load ptr, ptr %6, align 8
  %53 = getelementptr inbounds %struct.CommandTagBehavior, ptr %52, i64 1
  store ptr %53, ptr %4, align 8
  br label %54

54:                                               ; preds = %51, %48
  br label %55

55:                                               ; preds = %54
  br label %18, !llvm.loop !6

56:                                               ; preds = %18
  store i32 0, ptr %2, align 4
  store i32 1, ptr %8, align 4
  br label %57

57:                                               ; preds = %56, %39, %16
  call void @llvm.lifetime.end.p0(i64 4, ptr %7) #4
  call void @llvm.lifetime.end.p0(i64 8, ptr %6) #4
  call void @llvm.lifetime.end.p0(i64 8, ptr %5) #4
  call void @llvm.lifetime.end.p0(i64 8, ptr %4) #4
  %58 = load i32, ptr %2, align 4
  ret i32 %58
}