; Function Attrs: nounwind uwtable
define dso_local i32 @GetCommandTagEnum(ptr noundef %0) local_unnamed_addr #2 {
  %2 = icmp eq ptr %0, null
  br i1 %2, label %.loopexit, label %3

3:                                                ; preds = %1
  %4 = load i8, ptr %0, align 1
  %5 = icmp eq i8 %4, 0
  br i1 %5, label %.loopexit, label %.preheader

.preheader:                                       ; preds = %3, %19
  %.01420 = phi ptr [ %.1, %19 ], [ @tag_behavior, %3 ]
  %.01519 = phi ptr [ %.116, %19 ], [ getelementptr inbounds nuw (i8, ptr @tag_behavior, i64 3072), %3 ]
  %6 = ptrtoint ptr %.01519 to i64
  %7 = ptrtoint ptr %.01420 to i64
  %8 = sub i64 %6, %7
  %9 = ashr i64 %8, 5
  %10 = getelementptr inbounds %struct.CommandTagBehavior, ptr %.01420, i64 %9
  %11 = load ptr, ptr %10, align 8
  %12 = tail call i32 @pg_strcasecmp(ptr noundef nonnull %0, ptr noundef %11) #5
  %13 = icmp eq i32 %12, 0
  br i1 %13, label %14, label %19

14:                                               ; preds = %.preheader
  %15 = ptrtoint ptr %10 to i64
  %16 = sub i64 %15, ptrtoint (ptr @tag_behavior to i64)
  %17 = lshr exact i64 %16, 4
  %18 = trunc i64 %17 to i32
  br label %.loopexit

19:                                               ; preds = %.preheader
  %20 = icmp slt i32 %12, 0
  %21 = getelementptr inbounds i8, ptr %10, i64 -16
  %22 = getelementptr inbounds nuw i8, ptr %10, i64 16
  %.116 = select i1 %20, ptr %21, ptr %.01519
  %.1 = select i1 %20, ptr %.01420, ptr %22
  %.not = icmp ult ptr %.116, %.1
  br i1 %.not, label %.loopexit, label %.preheader, !llvm.loop !6

.loopexit:                                        ; preds = %19, %1, %3, %14
  %.0 = phi i32 [ %18, %14 ], [ 0, %3 ], [ 0, %1 ], [ 0, %19 ]
  ret i32 %.0
}